; Function Attrs: nounwind uwtable
define internal range(i32 0, 2) i32 @test_HDR_set_get_pvno() #1 {
  %1 = tail call fastcc ptr @set_up(ptr noundef nonnull @.str)
  %2 = icmp eq ptr %1, null
  br i1 %2, label %16, label %3

3:                                                ; preds = %0
  %4 = getelementptr inbounds nuw i8, ptr %1, i64 8
  store i32 1, ptr %4, align 8, !tbaa !4
  %5 = getelementptr inbounds nuw i8, ptr %1, i64 24
  %6 = load ptr, ptr %5, align 8, !tbaa !13
  %7 = tail call i32 @ossl_cmp_hdr_set_pvno(ptr noundef %6, i32 noundef 77) #8
  %8 = tail call i32 @test_int_eq(ptr noundef nonnull @.str.13, i32 noundef 53, ptr noundef nonnull @.str.17, ptr noundef nonnull @.str.18, i32 noundef %7, i32 noundef 1) #8
  %.not.i = icmp eq i32 %8, 0
  br i1 %.not.i, label %execute_HDR_set_get_pvno_test.exit, label %9

9:                                                ; preds = %3
  %10 = load ptr, ptr %5, align 8, !tbaa !13
  %11 = tail call i32 @ossl_cmp_hdr_get_pvno(ptr noundef %10) #8
  %12 = tail call i32 @test_int_eq(ptr noundef nonnull @.str.13, i32 noundef 55, ptr noundef nonnull @.str.19, ptr noundef nonnull @.str.20, i32 noundef %11, i32 noundef 77) #8
  %.not4.i = icmp ne i32 %12, 0
  %..i = zext i1 %.not4.i to i32
  br label %execute_HDR_set_get_pvno_test.exit

execute_HDR_set_get_pvno_test.exit:               ; preds = %3, %9
  %.0.i = phi i32 [ 0, %3 ], [ %..i, %9 ]
  %13 = load ptr, ptr %5, align 8, !tbaa !13
  tail call void @OSSL_CMP_PKIHEADER_free(ptr noundef %13) #8
  %14 = getelementptr inbounds nuw i8, ptr %1, i64 16
  %15 = load ptr, ptr %14, align 8, !tbaa !14
  tail call void @OSSL_CMP_CTX_free(ptr noundef %15) #8
  tail call void @CRYPTO_free(ptr noundef nonnull %1, ptr noundef nonnull @.str.13, i32 noundef 28) #8
  br label %16

16:                                               ; preds = %0, %execute_HDR_set_get_pvno_test.exit
  %.06 = phi i32 [ %.0.i, %execute_HDR_set_get_pvno_test.exit ], [ 0, %0 ]
  ret i32 %.06
}